target datalayout = "e-m:e-p270:32:32-p271:32:32-p272:64:64-i64:64-i128:128-f80:128-n8:16:32:64-S128"
target triple = "x86_64-pc-linux-gnu"

%struct.AVFormatContext = type { ptr, ptr, ptr, ptr, ptr, i32, i32, ptr, i32, ptr, i32, ptr, ptr, i64, i64, i64, i32, i32, i32, i64, i64, ptr, i32, i32, ptr, i32, i32, i32, i32, ptr, i64, i32, i32, %struct.AVIOInterruptCB, i32, i32, i32, i32, i64, i32, i32, i32, i32, i32, i32, i32, i32, i32, i32, i32, i32, i64, i32, i32, i32, i32, i32, ptr, ptr, ptr, ptr, i32, ptr, ptr, ptr, ptr, i32, ptr, ptr, i64, ptr, ptr, ptr, i64 }
%struct.AVIOInterruptCB = type { ptr, ptr }
%struct.video_data = type { ptr, i32, i32, i32, i32, i32, i32, i32, i32, ptr, i64, i32, i32, i32, i32, ptr, ptr, ptr, i64, i32, ptr, i32, i32, ptr, i32, ptr, ptr, ptr, ptr, ptr, ptr, ptr }

@.str.106 = private unnamed_addr constant [54 x i8] c"Some buffers are still owned by the caller on close.\0A\00", align 1

; Function Attrs: nounwind uwtable
define internal void @mmap_close(ptr noundef %0) #0 {
  %2 = alloca ptr, align 8
  %3 = alloca i32, align 4
  %4 = alloca i32, align 4
  store ptr %0, ptr %2, align 8, !tbaa !30
  call void @llvm.lifetime.start.p0(i64 4, ptr %3) #10
  call void @llvm.lifetime.start.p0(i64 4, ptr %4) #10
  %5 = load ptr, ptr %2, align 8, !tbaa !30
  %6 = getelementptr inbounds nuw %struct.video_data, ptr %5, i32 0, i32 12
  %7 = load i32, ptr %6, align 4, !tbaa !59
  store i32 %7, ptr %3, align 4, !tbaa !32
  %8 = load ptr, ptr %2, align 8, !tbaa !30
  %9 = getelementptr inbounds nuw %struct.video_data, ptr %8, i32 0, i32 28
  %10 = load ptr, ptr %9, align 8, !tbaa !42
  %11 = load ptr, ptr %2, align 8, !tbaa !30
  %12 = getelementptr inbounds nuw %struct.video_data, ptr %11, i32 0, i32 1
  %13 = load i32, ptr %12, align 8, !tbaa !36
  %14 = call i32 (i32, i64, ...) %10(i32 noundef %13, i64 noundef 1074026003, ptr noundef %3)
  store i32 0, ptr %4, align 4, !tbaa !32
  br label %15

15:                                               ; preds = %41, %1
  %16 = load i32, ptr %4, align 4, !tbaa !32
  %17 = load ptr, ptr %2, align 8, !tbaa !30
  %18 = getelementptr inbounds nuw %struct.video_data, ptr %17, i32 0, i32 13
  %19 = load i32, ptr %18, align 8, !tbaa !87
  %20 = icmp slt i32 %16, %19
  br i1 %20, label %21, label %44

21:                                               ; preds = %15
  %22 = load ptr, ptr %2, align 8, !tbaa !30
  %23 = getelementptr inbounds nuw %struct.video_data, ptr %22, i32 0, i32 31
  %24 = load ptr, ptr %23, align 8, !tbaa !108
  %25 = load ptr, ptr %2, align 8, !tbaa !30
  %26 = getelementptr inbounds nuw %struct.video_data, ptr %25, i32 0, i32 15
  %27 = load ptr, ptr %26, align 8, !tbaa !151
  %28 = load i32, ptr %4, align 4, !tbaa !32
  %29 = sext i32 %28 to i64
  %30 = getelementptr inbounds ptr, ptr %27, i64 %29
  %31 = load ptr, ptr %30, align 8, !tbaa !126
  %32 = load ptr, ptr %2, align 8, !tbaa !30
  %33 = getelementptr inbounds nuw %struct.video_data, ptr %32, i32 0, i32 16
  %34 = load ptr, ptr %33, align 8, !tbaa !152
  %35 = load i32, ptr %4, align 4, !tbaa !32
  %36 = sext i32 %35 to i64
  %37 = getelementptr inbounds i32, ptr %34, i64 %36
  %38 = load i32, ptr %37, align 4, !tbaa !32
  %39 = zext i32 %38 to i64
  %40 = call i32 %24(ptr noundef %31, i64 noundef %39)
  br label %41

41:                                               ; preds = %21
  %42 = load i32, ptr %4, align 4, !tbaa !32
  %43 = add nsw i32 %42, 1
  store i32 %43, ptr %4, align 4, !tbaa !32
  br label %15, !llvm.loop !195

44:                                               ; preds = %15
  %45 = load ptr, ptr %2, align 8, !tbaa !30
  %46 = getelementptr inbounds nuw %struct.video_data, ptr %45, i32 0, i32 15
  call void @av_freep(ptr noundef %46)
  %47 = load ptr, ptr %2, align 8, !tbaa !30
  %48 = getelementptr inbounds nuw %struct.video_data, ptr %47, i32 0, i32 16
  call void @av_freep(ptr noundef %48)
  call void @llvm.lifetime.end.p0(i64 4, ptr %4) #10
  call void @llvm.lifetime.end.p0(i64 4, ptr %3) #10
  ret void
}

; Function Attrs: nounwind uwtable
define internal i32 @v4l2_read_close(ptr noundef %0) #0 {
  %2 = alloca ptr, align 8
  %3 = alloca ptr, align 8
  %4 = alloca i32, align 4
  store ptr %0, ptr %2, align 8, !tbaa !13
  call void @llvm.lifetime.start.p0(i64 8, ptr %3) #10
  %5 = load ptr, ptr %2, align 8, !tbaa !13
  %6 = getelementptr inbounds nuw %struct.AVFormatContext, ptr %5, i32 0, i32 3
  %7 = load ptr, ptr %6, align 8, !tbaa !15
  store ptr %7, ptr %3, align 8, !tbaa !30
  %8 = load ptr, ptr %3, align 8, !tbaa !30
  %9 = getelementptr inbounds nuw %struct.video_data, ptr %8, i32 0, i32 14
  %10 = load atomic i32, ptr %9 seq_cst, align 4
  store i32 %10, ptr %4, align 4
  %11 = load i32, ptr %4, align 4, !tbaa !32
  %12 = load ptr, ptr %3, align 8, !tbaa !30
  %13 = getelementptr inbounds nuw %struct.video_data, ptr %12, i32 0, i32 13
  %14 = load i32, ptr %13, align 8, !tbaa !87
  %15 = icmp ne i32 %11, %14
  br i1 %15, label %16, label %18

16:                                               ; preds = %1
  %17 = load ptr, ptr %2, align 8, !tbaa !13
  call void (ptr, i32, ptr, ...) @av_log(ptr noundef %17, i32 noundef 24, ptr noundef @.str.106)
  br label %18

18:                                               ; preds = %16, %1
  %19 = load ptr, ptr %3, align 8, !tbaa !30
  call void @mmap_close(ptr noundef %19)
  %20 = load ptr, ptr %3, align 8, !tbaa !30
  %21 = getelementptr inbounds nuw %struct.video_data, ptr %20, i32 0, i32 9
  %22 = load ptr, ptr %21, align 8, !tbaa !88
  call void @ff_timefilter_destroy(ptr noundef %22)
  %23 = load ptr, ptr %3, align 8, !tbaa !30
  %24 = getelementptr inbounds nuw %struct.video_data, ptr %23, i32 0, i32 26
  %25 = load ptr, ptr %24, align 8, !tbaa !83
  %26 = load ptr, ptr %3, align 8, !tbaa !30
  %27 = getelementptr inbounds nuw %struct.video_data, ptr %26, i32 0, i32 1
  %28 = load i32, ptr %27, align 8, !tbaa !36
  %29 = call i32 %25(i32 noundef %28)
  call void @llvm.lifetime.end.p0(i64 8, ptr %3) #10
  ret i32 0
}