; Function Attrs: nounwind uwtable
define internal noundef i32 @v4l2_read_close(ptr noundef %0) #0 {
  %2 = alloca i32, align 4
  %3 = getelementptr inbounds nuw i8, ptr %0, i64 24
  %4 = load ptr, ptr %3, align 8, !tbaa !11
  %5 = getelementptr inbounds nuw i8, ptr %4, i64 68
  %6 = load atomic i32, ptr %5 seq_cst, align 4
  %7 = getelementptr inbounds nuw i8, ptr %4, i64 64
  %8 = load i32, ptr %7, align 8, !tbaa !101
  %.not = icmp eq i32 %6, %8
  br i1 %.not, label %10, label %9

9:                                                ; preds = %1
  tail call void (ptr, i32, ptr, ...) @av_log(ptr noundef nonnull %0, i32 noundef 24, ptr noundef nonnull @.str.106) #11
  br label %10

10:                                               ; preds = %9, %1
  call void @llvm.lifetime.start.p0(i64 4, ptr nonnull %2) #11
  %11 = getelementptr inbounds nuw i8, ptr %4, i64 60
  %12 = load i32, ptr %11, align 4, !tbaa !40
  store i32 %12, ptr %2, align 4, !tbaa !26
  %13 = getelementptr inbounds nuw i8, ptr %4, i64 168
  %14 = load ptr, ptr %13, align 8, !tbaa !34
  %15 = getelementptr inbounds nuw i8, ptr %4, i64 8
  %16 = load i32, ptr %15, align 8, !tbaa !28
  %17 = call i32 (i32, i64, ...) %14(i32 noundef %16, i64 noundef 1074026003, ptr noundef nonnull %2) #11
  %18 = load i32, ptr %7, align 8, !tbaa !101
  %19 = icmp sgt i32 %18, 0
  br i1 %19, label %.lr.ph.i, label %mmap_close.exit

.lr.ph.i:                                         ; preds = %10
  %20 = getelementptr inbounds nuw i8, ptr %4, i64 192
  %21 = getelementptr inbounds nuw i8, ptr %4, i64 72
  %22 = getelementptr inbounds nuw i8, ptr %4, i64 80
  br label %23

23:                                               ; preds = %23, %.lr.ph.i
  %indvars.iv.i = phi i64 [ 0, %.lr.ph.i ], [ %indvars.iv.next.i, %23 ]
  %24 = load ptr, ptr %20, align 8, !tbaa !124
  %25 = load ptr, ptr %21, align 8, !tbaa !107
  %26 = getelementptr inbounds nuw ptr, ptr %25, i64 %indvars.iv.i
  %27 = load ptr, ptr %26, align 8, !tbaa !108
  %28 = load ptr, ptr %22, align 8, !tbaa !125
  %29 = getelementptr inbounds nuw i32, ptr %28, i64 %indvars.iv.i
  %30 = load i32, ptr %29, align 4, !tbaa !26
  %31 = zext i32 %30 to i64
  %32 = call i32 %24(ptr noundef %27, i64 noundef %31) #11
  %indvars.iv.next.i = add nuw nsw i64 %indvars.iv.i, 1
  %33 = load i32, ptr %7, align 8, !tbaa !101
  %34 = sext i32 %33 to i64
  %35 = icmp slt i64 %indvars.iv.next.i, %34
  br i1 %35, label %23, label %mmap_close.exit, !llvm.loop !126

mmap_close.exit:                                  ; preds = %23, %10
  %36 = getelementptr inbounds nuw i8, ptr %4, i64 72
  call void @av_freep(ptr noundef nonnull %36) #11
  %37 = getelementptr inbounds nuw i8, ptr %4, i64 80
  call void @av_freep(ptr noundef nonnull %37) #11
  call void @llvm.lifetime.end.p0(i64 4, ptr nonnull %2) #11
  %38 = getelementptr inbounds nuw i8, ptr %4, i64 40
  %39 = load ptr, ptr %38, align 8, !tbaa !122
  call void @ff_timefilter_destroy(ptr noundef %39) #11
  %40 = getelementptr inbounds nuw i8, ptr %4, i64 152
  %41 = load ptr, ptr %40, align 8, !tbaa !90
  %42 = load i32, ptr %15, align 8, !tbaa !28
  %43 = call i32 %41(i32 noundef %42) #11
  ret i32 0
}